; ModuleID = '32/2221.c'
source_filename = "32/2221.c"
target datalayout = "e-m:e-p270:32:32-p271:32:32-p272:64:64-i64:64-f80:128-n8:16:32:64-S128"
target triple = "x86_64-pc-linux-gnu"

@.str = private unnamed_addr constant [3 x i8] c"%d\00", align 1
@.str.1 = private unnamed_addr constant [3 x i8] c"%s\00", align 1
@.str.2 = private unnamed_addr constant [2 x i8] c"\0A\00", align 1

; Function Attrs: noinline nounwind uwtable
define dso_local i8* @minus(i8* %0, i8* %1) #0 {
  %3 = alloca i8*, align 8
  %4 = alloca i8*, align 8
  %5 = alloca i8*, align 8
  %6 = alloca i32, align 4
  %7 = alloca i32, align 4
  %8 = alloca i32, align 4
  %9 = alloca i32, align 4
  %10 = alloca i32, align 4
  store i8* %0, i8** %3, align 8
  store i8* %1, i8** %4, align 8
  store i32 0, i32* %8, align 4
  store i32 0, i32* %9, align 4
  store i32 0, i32* %10, align 4
  %11 = load i8*, i8** %3, align 8
  %12 = call i64 @strlen(i8* %11) #4
  %13 = trunc i64 %12 to i32
  store i32 %13, i32* %6, align 4
  %14 = load i8*, i8** %4, align 8
  %15 = call i64 @strlen(i8* %14) #4
  %16 = trunc i64 %15 to i32
  store i32 %16, i32* %7, align 4
  %17 = call noalias i8* @malloc(i64 100) #5
  store i8* %17, i8** %5, align 8
  store i32 99, i32* %10, align 4
  %18 = load i8*, i8** %5, align 8
  %19 = load i32, i32* %10, align 4
  %20 = sext i32 %19 to i64
  %21 = getelementptr inbounds i8, i8* %18, i64 %20
  store i8 0, i8* %21, align 1
  %22 = load i32, i32* %10, align 4
  %23 = add nsw i32 %22, -1
  store i32 %23, i32* %10, align 4
  %24 = load i32, i32* %6, align 4
  %25 = sub nsw i32 %24, 1
  store i32 %25, i32* %8, align 4
  %26 = load i32, i32* %7, align 4
  %27 = sub nsw i32 %26, 1
  store i32 %27, i32* %9, align 4
  br label %28

28:                                               ; preds = %105, %2
  %29 = load i32, i32* %9, align 4
  %30 = icmp sge i32 %29, 0
  br i1 %30, label %31, label %108

31:                                               ; preds = %28
  %32 = load i8*, i8** %3, align 8
  %33 = load i32, i32* %8, align 4
  %34 = sext i32 %33 to i64
  %35 = getelementptr inbounds i8, i8* %32, i64 %34
  %36 = load i8, i8* %35, align 1
  %37 = sext i8 %36 to i32
  %38 = load i8*, i8** %4, align 8
  %39 = load i32, i32* %9, align 4
  %40 = sext i32 %39 to i64
  %41 = getelementptr inbounds i8, i8* %38, i64 %40
  %42 = load i8, i8* %41, align 1
  %43 = sext i8 %42 to i32
  %44 = icmp sge i32 %37, %43
  br i1 %44, label %45, label %65

45:                                               ; preds = %31
  %46 = load i8*, i8** %3, align 8
  %47 = load i32, i32* %8, align 4
  %48 = sext i32 %47 to i64
  %49 = getelementptr inbounds i8, i8* %46, i64 %48
  %50 = load i8, i8* %49, align 1
  %51 = sext i8 %50 to i32
  %52 = load i8*, i8** %4, align 8
  %53 = load i32, i32* %9, align 4
  %54 = sext i32 %53 to i64
  %55 = getelementptr inbounds i8, i8* %52, i64 %54
  %56 = load i8, i8* %55, align 1
  %57 = sext i8 %56 to i32
  %58 = sub nsw i32 %51, %57
  %59 = add nsw i32 %58, 48
  %60 = trunc i32 %59 to i8
  %61 = load i8*, i8** %5, align 8
  %62 = load i32, i32* %10, align 4
  %63 = sext i32 %62 to i64
  %64 = getelementptr inbounds i8, i8* %61, i64 %63
  store i8 %60, i8* %64, align 1
  br label %100

65:                                               ; preds = %31
  %66 = load i8*, i8** %3, align 8
  %67 = load i32, i32* %8, align 4
  %68 = sext i32 %67 to i64
  %69 = getelementptr inbounds i8, i8* %66, i64 %68
  %70 = load i8, i8* %69, align 1
  %71 = sext i8 %70 to i32
  %72 = load i8*, i8** %4, align 8
  %73 = load i32, i32* %9, align 4
  %74 = sext i32 %73 to i64
  %75 = getelementptr inbounds i8, i8* %72, i64 %74
  %76 = load i8, i8* %75, align 1
  %77 = sext i8 %76 to i32
  %78 = sub nsw i32 %71, %77
  %79 = add nsw i32 %78, 10
  %80 = add nsw i32 %79, 48
  %81 = trunc i32 %80 to i8
  %82 = load i8*, i8** %5, align 8
  %83 = load i32, i32* %10, align 4
  %84 = sext i32 %83 to i64
  %85 = getelementptr inbounds i8, i8* %82, i64 %84
  store i8 %81, i8* %85, align 1
  %86 = load i8*, i8** %3, align 8
  %87 = load i32, i32* %8, align 4
  %88 = sub nsw i32 %87, 1
  %89 = sext i32 %88 to i64
  %90 = getelementptr inbounds i8, i8* %86, i64 %89
  %91 = load i8, i8* %90, align 1
  %92 = sext i8 %91 to i32
  %93 = sub nsw i32 %92, 1
  %94 = trunc i32 %93 to i8
  %95 = load i8*, i8** %3, align 8
  %96 = load i32, i32* %8, align 4
  %97 = sub nsw i32 %96, 1
  %98 = sext i32 %97 to i64
  %99 = getelementptr inbounds i8, i8* %95, i64 %98
  store i8 %94, i8* %99, align 1
  br label %100

100:                                              ; preds = %65, %45
  %101 = load i32, i32* %10, align 4
  %102 = add nsw i32 %101, -1
  store i32 %102, i32* %10, align 4
  %103 = load i32, i32* %8, align 4
  %104 = add nsw i32 %103, -1
  store i32 %104, i32* %8, align 4
  br label %105

105:                                              ; preds = %100
  %106 = load i32, i32* %9, align 4
  %107 = add nsw i32 %106, -1
  store i32 %107, i32* %9, align 4
  br label %28

108:                                              ; preds = %28
  br label %109

109:                                              ; preds = %112, %108
  %110 = load i32, i32* %8, align 4
  %111 = icmp sge i32 %110, 0
  br i1 %111, label %112, label %126

112:                                              ; preds = %109
  %113 = load i8*, i8** %3, align 8
  %114 = load i32, i32* %8, align 4
  %115 = sext i32 %114 to i64
  %116 = getelementptr inbounds i8, i8* %113, i64 %115
  %117 = load i8, i8* %116, align 1
  %118 = load i8*, i8** %5, align 8
  %119 = load i32, i32* %10, align 4
  %120 = sext i32 %119 to i64
  %121 = getelementptr inbounds i8, i8* %118, i64 %120
  store i8 %117, i8* %121, align 1
  %122 = load i32, i32* %10, align 4
  %123 = add nsw i32 %122, -1
  store i32 %123, i32* %10, align 4
  %124 = load i32, i32* %8, align 4
  %125 = add nsw i32 %124, -1
  store i32 %125, i32* %8, align 4
  br label %109

126:                                              ; preds = %109
  %127 = load i8*, i8** %5, align 8
  %128 = load i32, i32* %10, align 4
  %129 = sext i32 %128 to i64
  %130 = getelementptr inbounds i8, i8* %127, i64 %129
  %131 = getelementptr inbounds i8, i8* %130, i64 1
  ret i8* %131
}

; Function Attrs: nounwind readonly
declare dso_local i64 @strlen(i8*) #1

; Function Attrs: nounwind
declare dso_local noalias i8* @malloc(i64) #2

; Function Attrs: noinline nounwind uwtable
define dso_local void @main() #0 {
  %1 = alloca i8**, align 8
  %2 = alloca i8**, align 8
  %3 = alloca i8**, align 8
  %4 = alloca i32, align 4
  %5 = alloca i32, align 4
  store i32 0, i32* %4, align 4
  store i32 0, i32* %5, align 4
  %6 = call i32 (i8*, ...) @__isoc99_scanf(i8* getelementptr inbounds ([3 x i8], [3 x i8]* @.str, i64 0, i64 0), i32* %4)
  %7 = load i32, i32* %4, align 4
  %8 = sext i32 %7 to i64
  %9 = mul i64 8, %8
  %10 = call noalias i8* @malloc(i64 %9) #5
  %11 = bitcast i8* %10 to i8**
  store i8** %11, i8*** %1, align 8
  %12 = load i32, i32* %4, align 4
  %13 = sext i32 %12 to i64
  %14 = mul i64 8, %13
  %15 = call noalias i8* @malloc(i64 %14) #5
  %16 = bitcast i8* %15 to i8**
  store i8** %16, i8*** %2, align 8
  %17 = load i32, i32* %4, align 4
  %18 = sext i32 %17 to i64
  %19 = mul i64 8, %18
  %20 = call noalias i8* @malloc(i64 %19) #5
  %21 = bitcast i8* %20 to i8**
  store i8** %21, i8*** %3, align 8
  br label %22

22:                                               ; preds = %26, %0
  %23 = load i32, i32* %5, align 4
  %24 = load i32, i32* %4, align 4
  %25 = icmp slt i32 %23, %24
  br i1 %25, label %26, label %67

26:                                               ; preds = %22
  %27 = call noalias i8* @malloc(i64 100) #5
  %28 = load i8**, i8*** %1, align 8
  %29 = load i32, i32* %5, align 4
  %30 = sext i32 %29 to i64
  %31 = getelementptr inbounds i8*, i8** %28, i64 %30
  store i8* %27, i8** %31, align 8
  %32 = call noalias i8* @malloc(i64 100) #5
  %33 = load i8**, i8*** %2, align 8
  %34 = load i32, i32* %5, align 4
  %35 = sext i32 %34 to i64
  %36 = getelementptr inbounds i8*, i8** %33, i64 %35
  store i8* %32, i8** %36, align 8
  %37 = load i8**, i8*** %1, align 8
  %38 = load i32, i32* %5, align 4
  %39 = sext i32 %38 to i64
  %40 = getelementptr inbounds i8*, i8** %37, i64 %39
  %41 = load i8*, i8** %40, align 8
  %42 = call i32 (i8*, ...) @__isoc99_scanf(i8* getelementptr inbounds ([3 x i8], [3 x i8]* @.str.1, i64 0, i64 0), i8* %41)
  %43 = load i8**, i8*** %2, align 8
  %44 = load i32, i32* %5, align 4
  %45 = sext i32 %44 to i64
  %46 = getelementptr inbounds i8*, i8** %43, i64 %45
  %47 = load i8*, i8** %46, align 8
  %48 = call i32 (i8*, ...) @__isoc99_scanf(i8* getelementptr inbounds ([3 x i8], [3 x i8]* @.str.1, i64 0, i64 0), i8* %47)
  %49 = call i32 (i8*, ...) @printf(i8* getelementptr inbounds ([2 x i8], [2 x i8]* @.str.2, i64 0, i64 0))
  %50 = load i8**, i8*** %1, align 8
  %51 = load i32, i32* %5, align 4
  %52 = sext i32 %51 to i64
  %53 = getelementptr inbounds i8*, i8** %50, i64 %52
  %54 = load i8*, i8** %53, align 8
  %55 = load i8**, i8*** %2, align 8
  %56 = load i32, i32* %5, align 4
  %57 = sext i32 %56 to i64
  %58 = getelementptr inbounds i8*, i8** %55, i64 %57
  %59 = load i8*, i8** %58, align 8
  %60 = call i8* @minus(i8* %54, i8* %59)
  %61 = load i8**, i8*** %3, align 8
  %62 = load i32, i32* %5, align 4
  %63 = sext i32 %62 to i64
  %64 = getelementptr inbounds i8*, i8** %61, i64 %63
  store i8* %60, i8** %64, align 8
  %65 = load i32, i32* %5, align 4
  %66 = add nsw i32 %65, 1
  store i32 %66, i32* %5, align 4
  br label %22

67:                                               ; preds = %22
  store i32 0, i32* %5, align 4
  br label %68

68:                                               ; preds = %79, %67
  %69 = load i32, i32* %5, align 4
  %70 = load i32, i32* %4, align 4
  %71 = icmp slt i32 %69, %70
  br i1 %71, label %72, label %82

72:                                               ; preds = %68
  %73 = load i8**, i8*** %3, align 8
  %74 = load i32, i32* %5, align 4
  %75 = sext i32 %74 to i64
  %76 = getelementptr inbounds i8*, i8** %73, i64 %75
  %77 = load i8*, i8** %76, align 8
  %78 = call i32 @puts(i8* %77)
  br label %79

79:                                               ; preds = %72
  %80 = load i32, i32* %5, align 4
  %81 = add nsw i32 %80, 1
  store i32 %81, i32* %5, align 4
  br label %68

82:                                               ; preds = %68
  ret void
}

declare dso_local i32 @__isoc99_scanf(i8*, ...) #3

declare dso_local i32 @printf(i8*, ...) #3

declare dso_local i32 @puts(i8*) #3


!llvm.module.flags = !{!0}
!llvm.ident = !{!1}

!0 = !{i32 1, !"wchar_size", i32 4}
!1 = !{!"clang version 10.0.0-4ubuntu1 "}
